; ModuleID = '3/2152.c'
source_filename = "3/2152.c"
target datalayout = "e-m:e-p270:32:32-p271:32:32-p272:64:64-i64:64-f80:128-n8:16:32:64-S128"
target triple = "x86_64-pc-linux-gnu"

@.str = private unnamed_addr constant [5 x i8] c"%d%d\00", align 1
@.str.1 = private unnamed_addr constant [3 x i8] c"%d\00", align 1
@.str.2 = private unnamed_addr constant [3 x i8] c"no\00", align 1
@.str.3 = private unnamed_addr constant [4 x i8] c"yes\00", align 1

; Function Attrs: noinline nounwind uwtable
define dso_local i32 @main() #0 {
  %1 = alloca i32, align 4
  %2 = alloca i32, align 4
  %3 = alloca i32, align 4
  %4 = alloca i32, align 4
  %5 = alloca i32, align 4
  %6 = alloca i32, align 4
  %7 = alloca i32, align 4
  %8 = alloca i32, align 4
  %9 = alloca i32, align 4
  %10 = alloca i32, align 4
  %11 = alloca i32, align 4
  %12 = alloca i32, align 4
  %13 = alloca [1000 x i32], align 16
  %14 = alloca i32, align 4
  store i32 0, i32* %1, align 4
  %15 = call i32 (i8*, ...) @__isoc99_scanf(i8* getelementptr inbounds ([5 x i8], [5 x i8]* @.str, i64 0, i64 0), i32* %12, i32* %7)
  store i32 1, i32* %2, align 4
  br label %16

16:                                               ; preds = %25, %0
  %17 = load i32, i32* %2, align 4
  %18 = load i32, i32* %12, align 4
  %19 = icmp sle i32 %17, %18
  br i1 %19, label %20, label %28

20:                                               ; preds = %16
  %21 = load i32, i32* %2, align 4
  %22 = sext i32 %21 to i64
  %23 = getelementptr inbounds [1000 x i32], [1000 x i32]* %13, i64 0, i64 %22
  %24 = call i32 (i8*, ...) @__isoc99_scanf(i8* getelementptr inbounds ([3 x i8], [3 x i8]* @.str.1, i64 0, i64 0), i32* %23)
  br label %25

25:                                               ; preds = %20
  %26 = load i32, i32* %2, align 4
  %27 = add nsw i32 %26, 1
  store i32 %27, i32* %2, align 4
  br label %16

28:                                               ; preds = %16
  store i32 1, i32* %2, align 4
  br label %29

29:                                               ; preds = %58, %28
  %30 = load i32, i32* %2, align 4
  %31 = load i32, i32* %12, align 4
  %32 = icmp sle i32 %30, %31
  br i1 %32, label %33, label %61

33:                                               ; preds = %29
  %34 = load i32, i32* %2, align 4
  %35 = add nsw i32 %34, 1
  store i32 %35, i32* %3, align 4
  br label %36

36:                                               ; preds = %54, %33
  %37 = load i32, i32* %3, align 4
  %38 = load i32, i32* %12, align 4
  %39 = icmp sle i32 %37, %38
  br i1 %39, label %40, label %57

40:                                               ; preds = %36
  %41 = load i32, i32* %2, align 4
  %42 = sext i32 %41 to i64
  %43 = getelementptr inbounds [1000 x i32], [1000 x i32]* %13, i64 0, i64 %42
  %44 = load i32, i32* %43, align 4
  %45 = load i32, i32* %3, align 4
  %46 = sext i32 %45 to i64
  %47 = getelementptr inbounds [1000 x i32], [1000 x i32]* %13, i64 0, i64 %46
  %48 = load i32, i32* %47, align 4
  %49 = add nsw i32 %44, %48
  %50 = load i32, i32* %7, align 4
  %51 = icmp eq i32 %49, %50
  br i1 %51, label %52, label %53

52:                                               ; preds = %40
  br label %62

53:                                               ; preds = %40
  br label %54

54:                                               ; preds = %53
  %55 = load i32, i32* %3, align 4
  %56 = add nsw i32 %55, 1
  store i32 %56, i32* %3, align 4
  br label %36

57:                                               ; preds = %36
  br label %58

58:                                               ; preds = %57
  %59 = load i32, i32* %2, align 4
  %60 = add nsw i32 %59, 1
  store i32 %60, i32* %2, align 4
  br label %29

61:                                               ; preds = %29
  br label %62

62:                                               ; preds = %61, %52
  %63 = load i32, i32* %2, align 4
  %64 = load i32, i32* %12, align 4
  %65 = add nsw i32 %64, 1
  %66 = icmp eq i32 %63, %65
  br i1 %66, label %67, label %69

67:                                               ; preds = %62
  %68 = call i32 (i8*, ...) @printf(i8* getelementptr inbounds ([3 x i8], [3 x i8]* @.str.2, i64 0, i64 0))
  br label %71

69:                                               ; preds = %62
  %70 = call i32 (i8*, ...) @printf(i8* getelementptr inbounds ([4 x i8], [4 x i8]* @.str.3, i64 0, i64 0))
  br label %71

71:                                               ; preds = %69, %67
  ret i32 0
}

declare dso_local i32 @__isoc99_scanf(i8*, ...) #1

declare dso_local i32 @printf(i8*, ...) #1


!llvm.module.flags = !{!0}
!llvm.ident = !{!1}

!0 = !{i32 1, !"wchar_size", i32 4}
!1 = !{!"clang version 10.0.0-4ubuntu1 "}
